target datalayout = "e-m:e-p270:32:32-p271:32:32-p272:64:64-i64:64-i128:128-f80:128-n8:16:32:64-S128"
target triple = "x86_64-pc-linux-gnu"

%struct.malloc_params = type { i64, i64, i64, i64, i64, i32 }
%struct.malloc_state = type { i32, i32, i64, i64, ptr, ptr, ptr, i64, i64, i64, [66 x ptr], [32 x ptr], i64, i64, i64, i32, i32, %struct.malloc_segment, ptr, i64 }
%struct.malloc_segment = type { ptr, i64, ptr, i32 }

@mparams = internal global %struct.malloc_params zeroinitializer, align 8
@_gm_ = internal global %struct.malloc_state zeroinitializer, align 8

; Function Attrs: nounwind uwtable
define hidden i64 @dlmalloc_set_footprint_limit(i64 noundef %0) #0 {
  %2 = alloca i64, align 8
  %3 = alloca i64, align 8
  store i64 %0, ptr %2, align 8, !tbaa !3
  call void @llvm.lifetime.start.p0(i64 8, ptr %3) #9
  %4 = load i64, ptr %2, align 8, !tbaa !3
  %5 = icmp eq i64 %4, 0
  br i1 %5, label %6, label %14

6:                                                ; preds = %1
  %7 = load i64, ptr getelementptr inbounds nuw (%struct.malloc_params, ptr @mparams, i32 0, i32 2), align 8, !tbaa !28
  %8 = sub i64 %7, 1
  %9 = add i64 1, %8
  %10 = load i64, ptr getelementptr inbounds nuw (%struct.malloc_params, ptr @mparams, i32 0, i32 2), align 8, !tbaa !28
  %11 = sub i64 %10, 1
  %12 = xor i64 %11, -1
  %13 = and i64 %9, %12
  store i64 %13, ptr %3, align 8, !tbaa !3
  br label %14

14:                                               ; preds = %6, %1
  %15 = load i64, ptr %2, align 8, !tbaa !3
  %16 = icmp eq i64 %15, -1
  br i1 %16, label %17, label %18

17:                                               ; preds = %14
  store i64 0, ptr %3, align 8, !tbaa !3
  br label %27

18:                                               ; preds = %14
  %19 = load i64, ptr %2, align 8, !tbaa !3
  %20 = load i64, ptr getelementptr inbounds nuw (%struct.malloc_params, ptr @mparams, i32 0, i32 2), align 8, !tbaa !28
  %21 = sub i64 %20, 1
  %22 = add i64 %19, %21
  %23 = load i64, ptr getelementptr inbounds nuw (%struct.malloc_params, ptr @mparams, i32 0, i32 2), align 8, !tbaa !28
  %24 = sub i64 %23, 1
  %25 = xor i64 %24, -1
  %26 = and i64 %22, %25
  store i64 %26, ptr %3, align 8, !tbaa !3
  br label %27

27:                                               ; preds = %18, %17
  %28 = load i64, ptr %3, align 8, !tbaa !3
  store i64 %28, ptr getelementptr inbounds nuw (%struct.malloc_state, ptr @_gm_, i32 0, i32 14), align 8, !tbaa !46
  call void @llvm.lifetime.end.p0(i64 8, ptr %3) #9
  ret i64 %28
}