; Function Attrs: mustprogress nofree norecurse nosync nounwind willreturn memory(readwrite, argmem: none, inaccessiblemem: none) uwtable
define hidden i64 @dlmalloc_set_footprint_limit(i64 noundef %0) local_unnamed_addr #10 {
  %2 = icmp eq i64 %0, -1
  br i1 %2, label %9, label %3

3:                                                ; preds = %1
  %4 = load i64, ptr getelementptr inbounds nuw (i8, ptr @mparams, i64 16), align 8, !tbaa !30
  %5 = add i64 %0, -1
  %6 = add i64 %5, %4
  %7 = sub i64 0, %4
  %8 = and i64 %6, %7
  br label %9

9:                                                ; preds = %1, %3
  %.0 = phi i64 [ %8, %3 ], [ 0, %1 ]
  store i64 %.0, ptr getelementptr inbounds nuw (i8, ptr @_gm_, i64 872), align 8, !tbaa !48
  ret i64 %.0
}